target datalayout = "e-m:e-p270:32:32-p271:32:32-p272:64:64-i64:64-i128:128-f80:128-n8:16:32:64-S128"
target triple = "x86_64-pc-linux-gnu"

@.str.3 = private unnamed_addr constant [11 x i8] c"<error> %s\00", align 1
@.str.4 = private unnamed_addr constant [2 x i8] c" \00", align 1
@.str.5 = private unnamed_addr constant [4 x i8] c"ERR\00", align 1
@.str.6 = private unnamed_addr constant [3 x i8] c"\0D\0A\00", align 1
@.str.7 = private unnamed_addr constant [4 x i8] c" %s\00", align 1
@.str.8 = private unnamed_addr constant [4 x i8] c"err\00", align 1

; Function Attrs: nounwind uwtable
define dso_local void @luaPushErrorBuff(ptr noundef %0, ptr noundef %1) #0 {
  %3 = alloca ptr, align 8
  %4 = alloca ptr, align 8
  %5 = alloca ptr, align 8
  %6 = alloca ptr, align 8
  %7 = alloca ptr, align 8
  %8 = alloca ptr, align 8
  store ptr %0, ptr %3, align 8, !tbaa !5
  store ptr %1, ptr %4, align 8, !tbaa !10
  call void @llvm.lifetime.start.p0(i64 8, ptr %5) #12
  call void @llvm.lifetime.start.p0(i64 8, ptr %6) #12
  %9 = call i32 @ldbIsEnabled()
  %10 = icmp ne i32 %9, 0
  br i1 %10, label %11, label %15

11:                                               ; preds = %2
  %12 = call ptr @sdsempty()
  %13 = load ptr, ptr %4, align 8, !tbaa !10
  %14 = call ptr (ptr, ptr, ...) @sdscatprintf(ptr noundef %12, ptr noundef @.str.3, ptr noundef %13)
  call void @ldbLog(ptr noundef %14)
  br label %15

15:                                               ; preds = %11, %2
  %16 = load ptr, ptr %4, align 8, !tbaa !10
  %17 = getelementptr inbounds i8, ptr %16, i64 0
  %18 = load i8, ptr %17, align 1, !tbaa !13
  %19 = sext i8 %18 to i32
  %20 = icmp eq i32 %19, 45
  br i1 %20, label %21, label %41

21:                                               ; preds = %15
  call void @llvm.lifetime.start.p0(i64 8, ptr %7) #12
  %22 = load ptr, ptr %4, align 8, !tbaa !10
  %23 = call ptr @strstr(ptr noundef %22, ptr noundef @.str.4) #13
  store ptr %23, ptr %7, align 8, !tbaa !10
  %24 = load ptr, ptr %7, align 8, !tbaa !10
  %25 = icmp ne ptr %24, null
  br i1 %25, label %31, label %26

26:                                               ; preds = %21
  %27 = load ptr, ptr %4, align 8, !tbaa !10
  %28 = getelementptr inbounds i8, ptr %27, i64 1
  %29 = call ptr @sdsnew(ptr noundef %28)
  store ptr %29, ptr %5, align 8, !tbaa !10
  %30 = call ptr @sdsnew(ptr noundef @.str.5)
  store ptr %30, ptr %6, align 8, !tbaa !10
  br label %39

31:                                               ; preds = %21
  %32 = load ptr, ptr %7, align 8, !tbaa !10
  store i8 0, ptr %32, align 1, !tbaa !13
  %33 = load ptr, ptr %7, align 8, !tbaa !10
  %34 = getelementptr inbounds i8, ptr %33, i64 1
  %35 = call ptr @sdsnew(ptr noundef %34)
  store ptr %35, ptr %5, align 8, !tbaa !10
  %36 = load ptr, ptr %4, align 8, !tbaa !10
  %37 = getelementptr inbounds i8, ptr %36, i64 1
  %38 = call ptr @sdsnew(ptr noundef %37)
  store ptr %38, ptr %6, align 8, !tbaa !10
  br label %39

39:                                               ; preds = %31, %26
  %40 = load ptr, ptr %4, align 8, !tbaa !10
  call void @sdsfree(ptr noundef %40)
  call void @llvm.lifetime.end.p0(i64 8, ptr %7) #12
  br label %44

41:                                               ; preds = %15
  %42 = load ptr, ptr %4, align 8, !tbaa !10
  store ptr %42, ptr %5, align 8, !tbaa !10
  %43 = call ptr @sdsnew(ptr noundef @.str.5)
  store ptr %43, ptr %6, align 8, !tbaa !10
  br label %44

44:                                               ; preds = %41, %39
  %45 = load ptr, ptr %5, align 8, !tbaa !10
  %46 = call ptr @sdstrim(ptr noundef %45, ptr noundef @.str.6)
  store ptr %46, ptr %5, align 8, !tbaa !10
  call void @llvm.lifetime.start.p0(i64 8, ptr %8) #12
  %47 = load ptr, ptr %6, align 8, !tbaa !10
  %48 = load ptr, ptr %5, align 8, !tbaa !10
  %49 = call ptr (ptr, ptr, ...) @sdscatfmt(ptr noundef %47, ptr noundef @.str.7, ptr noundef %48)
  store ptr %49, ptr %8, align 8, !tbaa !10
  %50 = load ptr, ptr %3, align 8, !tbaa !5
  call void @lua_createtable(ptr noundef %50, i32 noundef 0, i32 noundef 0)
  %51 = load ptr, ptr %3, align 8, !tbaa !5
  call void @lua_pushstring(ptr noundef %51, ptr noundef @.str.8)
  %52 = load ptr, ptr %3, align 8, !tbaa !5
  %53 = load ptr, ptr %8, align 8, !tbaa !10
  call void @lua_pushstring(ptr noundef %52, ptr noundef %53)
  %54 = load ptr, ptr %3, align 8, !tbaa !5
  call void @lua_settable(ptr noundef %54, i32 noundef -3)
  %55 = load ptr, ptr %5, align 8, !tbaa !10
  call void @sdsfree(ptr noundef %55)
  %56 = load ptr, ptr %8, align 8, !tbaa !10
  call void @sdsfree(ptr noundef %56)
  call void @llvm.lifetime.end.p0(i64 8, ptr %8) #12
  call void @llvm.lifetime.end.p0(i64 8, ptr %6) #12
  call void @llvm.lifetime.end.p0(i64 8, ptr %5) #12
  ret void
}