; Function Attrs: nounwind uwtable
define dso_local void @luaPushErrorBuff(ptr noundef %0, ptr noundef %1) local_unnamed_addr #0 {
  %3 = tail call i32 @ldbIsEnabled() #11
  %.not = icmp eq i32 %3, 0
  br i1 %.not, label %7, label %4

4:                                                ; preds = %2
  %5 = tail call ptr @sdsempty() #11
  %6 = tail call ptr (ptr, ptr, ...) @sdscatprintf(ptr noundef %5, ptr noundef nonnull @.str.3, ptr noundef %1) #11
  tail call void @ldbLog(ptr noundef %6) #11
  br label %7

7:                                                ; preds = %4, %2
  %8 = load i8, ptr %1, align 1, !tbaa !7
  %9 = icmp eq i8 %8, 45
  br i1 %9, label %10, label %20

10:                                               ; preds = %7
  %strchr = tail call ptr @strchr(ptr noundef nonnull dereferenceable(1) %1, i32 32)
  %.not23 = icmp eq ptr %strchr, null
  br i1 %.not23, label %11, label %14

11:                                               ; preds = %10
  %12 = getelementptr inbounds nuw i8, ptr %1, i64 1
  %13 = tail call ptr @sdsnew(ptr noundef nonnull %12) #11
  br label %18

14:                                               ; preds = %10
  store i8 0, ptr %strchr, align 1, !tbaa !7
  %15 = getelementptr inbounds nuw i8, ptr %strchr, i64 1
  %16 = tail call ptr @sdsnew(ptr noundef nonnull %15) #11
  %17 = getelementptr inbounds nuw i8, ptr %1, i64 1
  br label %18

18:                                               ; preds = %14, %11
  %.sink = phi ptr [ %17, %14 ], [ @.str.5, %11 ]
  %.0 = phi ptr [ %16, %14 ], [ %13, %11 ]
  %19 = tail call ptr @sdsnew(ptr noundef nonnull %.sink) #11
  tail call void @sdsfree(ptr noundef nonnull %1) #11
  br label %22

20:                                               ; preds = %7
  %21 = tail call ptr @sdsnew(ptr noundef nonnull @.str.5) #11
  br label %22

22:                                               ; preds = %20, %18
  %.121 = phi ptr [ %19, %18 ], [ %21, %20 ]
  %.1 = phi ptr [ %.0, %18 ], [ %1, %20 ]
  %23 = tail call ptr @sdstrim(ptr noundef %.1, ptr noundef nonnull @.str.6) #11
  %24 = tail call ptr (ptr, ptr, ...) @sdscatfmt(ptr noundef %.121, ptr noundef nonnull @.str.7, ptr noundef %23) #11
  tail call void @lua_createtable(ptr noundef %0, i32 noundef 0, i32 noundef 0) #11
  tail call void @lua_pushstring(ptr noundef %0, ptr noundef nonnull @.str.8) #11
  tail call void @lua_pushstring(ptr noundef %0, ptr noundef %24) #11
  tail call void @lua_settable(ptr noundef %0, i32 noundef -3) #11
  tail call void @sdsfree(ptr noundef %23) #11
  tail call void @sdsfree(ptr noundef %24) #11
  ret void
}